target datalayout = "e-m:e-p270:32:32-p271:32:32-p272:64:64-i64:64-i128:128-f80:128-n8:16:32:64-S128"
target triple = "x86_64-pc-linux-gnu"

%struct.expert_field = type { i32, i32 }
%struct._packet_info = type { ptr, ptr, i32, i32, %struct.nstime_t, %struct.nstime_t, %struct.nstime_t, i8, ptr, ptr, ptr, ptr, %struct._address, %struct._address, %struct._address, %struct._address, %struct._address, %struct._address, i32, ptr, i8, [3 x i8], %struct.anon, i32, i32, i32, i32, ptr, i8, ptr, ptr, i16, i16, i32, i32, i16, i32, i32, ptr, ptr, ptr, i8, i8, i16, i16, i16, i32, i16, i16, ptr, ptr, ptr, ptr, ptr, i32, i32 }
%struct.nstime_t = type { i64, i32 }
%struct._address = type { i32, i32, ptr, ptr }
%struct.anon = type { i8, [3 x i8] }
%struct.e_in6_addr = type { [16 x i8] }

@hf_bgp_update_path_attribute_mp_reach_nlri_next_hop_rd = internal global i32 0, align 4
@hf_bgp_update_path_attribute_mp_reach_nlri_next_hop_ipv6 = internal global i32 0, align 4
@hf_bgp_update_path_attribute_mp_reach_nlri_next_hop_ipv6_link_local = internal global i32 0, align 4
@ei_bgp_next_hop_ipv6_scope = internal global %struct.expert_field zeroinitializer, align 4
@ei_bgp_next_hop_rd_nonzero = internal global %struct.expert_field zeroinitializer, align 4
@.str.1809 = private unnamed_addr constant [49 x i8] c"Invalid IPv6 address scope; should be link-local\00", align 1
@.str.1810 = private unnamed_addr constant [15 x i8] c" Link-local=%s\00", align 1
@rd_zero = internal constant [8 x i8] zeroinitializer, align 1
@.str.1811 = private unnamed_addr constant [7 x i8] c" RD=%s\00", align 1
@.str.1813 = private unnamed_addr constant [9 x i8] c" IPv6=%s\00", align 1

; Function Attrs: inlinehint nounwind null_pointer_is_valid sspstrong uwtable
define internal zeroext i1 @in6_addr_is_linklocal(ptr noundef %0) #4 {
  %2 = alloca ptr, align 8
  store ptr %0, ptr %2, align 8
  %3 = load ptr, ptr %2, align 8
  %4 = getelementptr inbounds nuw %struct.e_in6_addr, ptr %3, i32 0, i32 0
  %5 = getelementptr [16 x i8], ptr %4, i64 0, i64 0
  %6 = load i8, ptr %5, align 1
  %7 = zext i8 %6 to i32
  %8 = icmp eq i32 %7, 254
  br i1 %8, label %9, label %17

9:                                                ; preds = %1
  %10 = load ptr, ptr %2, align 8
  %11 = getelementptr inbounds nuw %struct.e_in6_addr, ptr %10, i32 0, i32 0
  %12 = getelementptr [16 x i8], ptr %11, i64 0, i64 1
  %13 = load i8, ptr %12, align 1
  %14 = zext i8 %13 to i32
  %15 = and i32 %14, 192
  %16 = icmp eq i32 %15, 128
  br label %17

17:                                               ; preds = %9, %1
  %18 = phi i1 [ false, %1 ], [ %16, %9 ]
  ret i1 %18
}

; Function Attrs: null_pointer_is_valid sspstrong uwtable
define internal i32 @decode_mp_next_hop_vpn_ipv6(ptr noundef %0, ptr noundef %1, i32 noundef %2, ptr noundef %3, ptr noundef %4, i32 noundef %5) #0 {
  %7 = alloca i32, align 4
  %8 = alloca ptr, align 8
  %9 = alloca ptr, align 8
  %10 = alloca i32, align 4
  %11 = alloca ptr, align 8
  %12 = alloca ptr, align 8
  %13 = alloca i32, align 4
  %14 = alloca ptr, align 8
  %15 = alloca ptr, align 8
  %16 = alloca %struct.e_in6_addr, align 1
  %17 = alloca [46 x i8], align 16
  %18 = alloca i32, align 4
  store ptr %0, ptr %8, align 8
  store ptr %1, ptr %9, align 8
  store i32 %2, ptr %10, align 4
  store ptr %3, ptr %11, align 8
  store ptr %4, ptr %12, align 8
  store i32 %5, ptr %13, align 4
  call void @llvm.lifetime.start.p0(i64 8, ptr %14) #6
  call void @llvm.lifetime.start.p0(i64 8, ptr %15) #6
  call void @llvm.lifetime.start.p0(i64 16, ptr %16) #6
  call void @llvm.lifetime.start.p0(i64 46, ptr %17) #6
  %19 = load i32, ptr %13, align 4
  switch i32 %19, label %139 [
    i32 24, label %20
    i32 48, label %58
  ]

20:                                               ; preds = %6
  %21 = load ptr, ptr %11, align 8
  %22 = getelementptr inbounds nuw %struct._packet_info, ptr %21, i32 0, i32 51
  %23 = load ptr, ptr %22, align 8
  %24 = load ptr, ptr %8, align 8
  %25 = load i32, ptr %10, align 4
  %26 = call ptr @decode_bgp_rd(ptr noundef %23, ptr noundef %24, i32 noundef %25)
  store ptr %26, ptr %15, align 8
  %27 = load ptr, ptr %9, align 8
  %28 = load i32, ptr @hf_bgp_update_path_attribute_mp_reach_nlri_next_hop_rd, align 4
  %29 = load ptr, ptr %8, align 8
  %30 = load i32, ptr %10, align 4
  %31 = load ptr, ptr %15, align 8
  %32 = call ptr @proto_tree_add_string(ptr noundef %27, i32 noundef %28, ptr noundef %29, i32 noundef %30, i32 noundef 8, ptr noundef %31)
  store ptr %32, ptr %14, align 8
  %33 = load ptr, ptr %8, align 8
  %34 = load i32, ptr %10, align 4
  %35 = call i32 @tvb_memeql(ptr noundef %33, i32 noundef %34, ptr noundef @rd_zero, i64 noundef 8)
  %36 = icmp ne i32 %35, 0
  br i1 %36, label %37, label %41

37:                                               ; preds = %20
  %38 = load ptr, ptr %11, align 8
  %39 = load ptr, ptr %14, align 8
  %40 = call ptr @expert_add_info(ptr noundef %38, ptr noundef %39, ptr noundef @ei_bgp_next_hop_rd_nonzero)
  br label %41

41:                                               ; preds = %37, %20
  %42 = load ptr, ptr %12, align 8
  %43 = load ptr, ptr %15, align 8
  call void (ptr, ptr, ...) @wmem_strbuf_append_printf(ptr noundef %42, ptr noundef @.str.1811, ptr noundef %43)
  %44 = load i32, ptr %10, align 4
  %45 = add i32 %44, 8
  store i32 %45, ptr %10, align 4
  %46 = load ptr, ptr %9, align 8
  %47 = load i32, ptr @hf_bgp_update_path_attribute_mp_reach_nlri_next_hop_ipv6, align 4
  %48 = load ptr, ptr %8, align 8
  %49 = load i32, ptr %10, align 4
  %50 = call ptr @proto_tree_add_item(ptr noundef %46, i32 noundef %47, ptr noundef %48, i32 noundef %49, i32 noundef 16, i32 noundef 0)
  %51 = load ptr, ptr %12, align 8
  %52 = load ptr, ptr %11, align 8
  %53 = getelementptr inbounds nuw %struct._packet_info, ptr %52, i32 0, i32 51
  %54 = load ptr, ptr %53, align 8
  %55 = load ptr, ptr %8, align 8
  %56 = load i32, ptr %10, align 4
  %57 = call ptr @tvb_address_to_str(ptr noundef %54, ptr noundef %55, i32 noundef 3, i32 noundef %56)
  call void (ptr, ptr, ...) @wmem_strbuf_append_printf(ptr noundef %51, ptr noundef @.str.1813, ptr noundef %57)
  br label %140

58:                                               ; preds = %6
  %59 = load ptr, ptr %11, align 8
  %60 = getelementptr inbounds nuw %struct._packet_info, ptr %59, i32 0, i32 51
  %61 = load ptr, ptr %60, align 8
  %62 = load ptr, ptr %8, align 8
  %63 = load i32, ptr %10, align 4
  %64 = call ptr @decode_bgp_rd(ptr noundef %61, ptr noundef %62, i32 noundef %63)
  store ptr %64, ptr %15, align 8
  %65 = load ptr, ptr %9, align 8
  %66 = load i32, ptr @hf_bgp_update_path_attribute_mp_reach_nlri_next_hop_rd, align 4
  %67 = load ptr, ptr %8, align 8
  %68 = load i32, ptr %10, align 4
  %69 = load ptr, ptr %15, align 8
  %70 = call ptr @proto_tree_add_string(ptr noundef %65, i32 noundef %66, ptr noundef %67, i32 noundef %68, i32 noundef 8, ptr noundef %69)
  store ptr %70, ptr %14, align 8
  %71 = load ptr, ptr %8, align 8
  %72 = load i32, ptr %10, align 4
  %73 = call i32 @tvb_memeql(ptr noundef %71, i32 noundef %72, ptr noundef @rd_zero, i64 noundef 8)
  %74 = icmp ne i32 %73, 0
  br i1 %74, label %75, label %79

75:                                               ; preds = %58
  %76 = load ptr, ptr %11, align 8
  %77 = load ptr, ptr %14, align 8
  %78 = call ptr @expert_add_info(ptr noundef %76, ptr noundef %77, ptr noundef @ei_bgp_next_hop_rd_nonzero)
  br label %79

79:                                               ; preds = %75, %58
  %80 = load ptr, ptr %12, align 8
  %81 = load ptr, ptr %15, align 8
  call void (ptr, ptr, ...) @wmem_strbuf_append_printf(ptr noundef %80, ptr noundef @.str.1811, ptr noundef %81)
  %82 = load i32, ptr %10, align 4
  %83 = add i32 %82, 8
  store i32 %83, ptr %10, align 4
  %84 = load ptr, ptr %9, align 8
  %85 = load i32, ptr @hf_bgp_update_path_attribute_mp_reach_nlri_next_hop_ipv6, align 4
  %86 = load ptr, ptr %8, align 8
  %87 = load i32, ptr %10, align 4
  %88 = call ptr @proto_tree_add_item(ptr noundef %84, i32 noundef %85, ptr noundef %86, i32 noundef %87, i32 noundef 16, i32 noundef 0)
  %89 = load ptr, ptr %12, align 8
  %90 = load ptr, ptr %11, align 8
  %91 = getelementptr inbounds nuw %struct._packet_info, ptr %90, i32 0, i32 51
  %92 = load ptr, ptr %91, align 8
  %93 = load ptr, ptr %8, align 8
  %94 = load i32, ptr %10, align 4
  %95 = call ptr @tvb_address_to_str(ptr noundef %92, ptr noundef %93, i32 noundef 3, i32 noundef %94)
  call void (ptr, ptr, ...) @wmem_strbuf_append_printf(ptr noundef %89, ptr noundef @.str.1813, ptr noundef %95)
  %96 = load i32, ptr %10, align 4
  %97 = add i32 %96, 16
  store i32 %97, ptr %10, align 4
  %98 = load ptr, ptr %11, align 8
  %99 = getelementptr inbounds nuw %struct._packet_info, ptr %98, i32 0, i32 51
  %100 = load ptr, ptr %99, align 8
  %101 = load ptr, ptr %8, align 8
  %102 = load i32, ptr %10, align 4
  %103 = call ptr @decode_bgp_rd(ptr noundef %100, ptr noundef %101, i32 noundef %102)
  store ptr %103, ptr %15, align 8
  %104 = load ptr, ptr %9, align 8
  %105 = load i32, ptr @hf_bgp_update_path_attribute_mp_reach_nlri_next_hop_rd, align 4
  %106 = load ptr, ptr %8, align 8
  %107 = load i32, ptr %10, align 4
  %108 = load ptr, ptr %15, align 8
  %109 = call ptr @proto_tree_add_string(ptr noundef %104, i32 noundef %105, ptr noundef %106, i32 noundef %107, i32 noundef 8, ptr noundef %108)
  store ptr %109, ptr %14, align 8
  %110 = load ptr, ptr %8, align 8
  %111 = load i32, ptr %10, align 4
  %112 = call i32 @tvb_memeql(ptr noundef %110, i32 noundef %111, ptr noundef @rd_zero, i64 noundef 8)
  %113 = icmp ne i32 %112, 0
  br i1 %113, label %114, label %118

114:                                              ; preds = %79
  %115 = load ptr, ptr %11, align 8
  %116 = load ptr, ptr %14, align 8
  %117 = call ptr @expert_add_info(ptr noundef %115, ptr noundef %116, ptr noundef @ei_bgp_next_hop_rd_nonzero)
  br label %118

118:                                              ; preds = %114, %79
  %119 = load ptr, ptr %12, align 8
  %120 = load ptr, ptr %15, align 8
  call void (ptr, ptr, ...) @wmem_strbuf_append_printf(ptr noundef %119, ptr noundef @.str.1811, ptr noundef %120)
  %121 = load i32, ptr %10, align 4
  %122 = add i32 %121, 8
  store i32 %122, ptr %10, align 4
  %123 = load ptr, ptr %9, align 8
  %124 = load i32, ptr @hf_bgp_update_path_attribute_mp_reach_nlri_next_hop_ipv6_link_local, align 4
  %125 = load ptr, ptr %8, align 8
  %126 = load i32, ptr %10, align 4
  %127 = call ptr @proto_tree_add_item(ptr noundef %123, i32 noundef %124, ptr noundef %125, i32 noundef %126, i32 noundef 16, i32 noundef 0)
  store ptr %127, ptr %14, align 8
  %128 = load ptr, ptr %8, align 8
  %129 = load i32, ptr %10, align 4
  call void @tvb_get_ipv6(ptr noundef %128, i32 noundef %129, ptr noundef %16)
  %130 = call zeroext i1 @in6_addr_is_linklocal(ptr noundef %16)
  br i1 %130, label %135, label %131

131:                                              ; preds = %118
  %132 = load ptr, ptr %11, align 8
  %133 = load ptr, ptr %14, align 8
  %134 = call ptr (ptr, ptr, ptr, ptr, ...) @expert_add_info_format(ptr noundef %132, ptr noundef %133, ptr noundef @ei_bgp_next_hop_ipv6_scope, ptr noundef @.str.1809)
  br label %135

135:                                              ; preds = %131, %118
  %136 = getelementptr inbounds [46 x i8], ptr %17, i64 0, i64 0
  call void @ip6_to_str_buf(ptr noundef %16, ptr noundef %136, i64 noundef 46)
  %137 = load ptr, ptr %12, align 8
  %138 = getelementptr inbounds [46 x i8], ptr %17, i64 0, i64 0
  call void (ptr, ptr, ...) @wmem_strbuf_append_printf(ptr noundef %137, ptr noundef @.str.1810, ptr noundef %138)
  br label %140

139:                                              ; preds = %6
  store i32 0, ptr %7, align 4
  store i32 1, ptr %18, align 4
  br label %142

140:                                              ; preds = %135, %41
  %141 = load i32, ptr %13, align 4
  store i32 %141, ptr %7, align 4
  store i32 1, ptr %18, align 4
  br label %142

142:                                              ; preds = %140, %139
  call void @llvm.lifetime.end.p0(i64 46, ptr %17) #6
  call void @llvm.lifetime.end.p0(i64 16, ptr %16) #6
  call void @llvm.lifetime.end.p0(i64 8, ptr %15) #6
  call void @llvm.lifetime.end.p0(i64 8, ptr %14) #6
  %143 = load i32, ptr %7, align 4
  ret i32 %143
}