; Function Attrs: null_pointer_is_valid sspstrong uwtable
define internal fastcc range(i32 0, 256) i32 @decode_mp_next_hop_vpn_ipv6(ptr noundef %0, ptr noundef %1, ptr noundef %2, ptr noundef %3, i32 noundef range(i32 0, 256) %4) unnamed_addr #0 {
  %6 = alloca %struct.e_in6_addr, align 1
  %7 = alloca [46 x i8], align 16
  call void @llvm.lifetime.start.p0(i64 16, ptr nonnull %6) #5
  call void @llvm.lifetime.start.p0(i64 46, ptr nonnull %7) #5
  %trunc = trunc nuw i32 %4 to i8
  switch i8 %trunc, label %52 [
    i8 24, label %8
    i8 48, label %22
  ]

8:                                                ; preds = %5
  %9 = getelementptr inbounds nuw i8, ptr %2, i64 408
  %10 = load ptr, ptr %9, align 8
  %11 = tail call ptr @decode_bgp_rd(ptr noundef %10, ptr noundef %0, i32 noundef 1)
  %12 = load i32, ptr @hf_bgp_update_path_attribute_mp_reach_nlri_next_hop_rd, align 4
  %13 = tail call ptr @proto_tree_add_string(ptr noundef %1, i32 noundef %12, ptr noundef %0, i32 noundef 1, i32 noundef 8, ptr noundef %11)
  %14 = tail call i32 @tvb_memeql(ptr noundef %0, i32 noundef 1, ptr noundef nonnull @rd_zero, i64 noundef 8)
  %.not68 = icmp eq i32 %14, 0
  br i1 %.not68, label %17, label %15

15:                                               ; preds = %8
  %16 = tail call ptr @expert_add_info(ptr noundef %2, ptr noundef %13, ptr noundef nonnull @ei_bgp_next_hop_rd_nonzero)
  br label %17

17:                                               ; preds = %15, %8
  tail call void (ptr, ptr, ...) @wmem_strbuf_append_printf(ptr noundef %3, ptr noundef nonnull @.str.1811, ptr noundef %11)
  %18 = load i32, ptr @hf_bgp_update_path_attribute_mp_reach_nlri_next_hop_ipv6, align 4
  %19 = tail call ptr @proto_tree_add_item(ptr noundef %1, i32 noundef %18, ptr noundef %0, i32 noundef 9, i32 noundef 16, i32 noundef 0)
  %20 = load ptr, ptr %9, align 8
  %21 = tail call ptr @tvb_address_to_str(ptr noundef %20, ptr noundef %0, i32 noundef 3, i32 noundef 9)
  tail call void (ptr, ptr, ...) @wmem_strbuf_append_printf(ptr noundef %3, ptr noundef nonnull @.str.1813, ptr noundef %21)
  br label %52

22:                                               ; preds = %5
  %23 = getelementptr inbounds nuw i8, ptr %2, i64 408
  %24 = load ptr, ptr %23, align 8
  %25 = tail call ptr @decode_bgp_rd(ptr noundef %24, ptr noundef %0, i32 noundef 1)
  %26 = load i32, ptr @hf_bgp_update_path_attribute_mp_reach_nlri_next_hop_rd, align 4
  %27 = tail call ptr @proto_tree_add_string(ptr noundef %1, i32 noundef %26, ptr noundef %0, i32 noundef 1, i32 noundef 8, ptr noundef %25)
  %28 = tail call i32 @tvb_memeql(ptr noundef %0, i32 noundef 1, ptr noundef nonnull @rd_zero, i64 noundef 8)
  %.not = icmp eq i32 %28, 0
  br i1 %.not, label %31, label %29

29:                                               ; preds = %22
  %30 = tail call ptr @expert_add_info(ptr noundef %2, ptr noundef %27, ptr noundef nonnull @ei_bgp_next_hop_rd_nonzero)
  br label %31

31:                                               ; preds = %29, %22
  tail call void (ptr, ptr, ...) @wmem_strbuf_append_printf(ptr noundef %3, ptr noundef nonnull @.str.1811, ptr noundef %25)
  %32 = load i32, ptr @hf_bgp_update_path_attribute_mp_reach_nlri_next_hop_ipv6, align 4
  %33 = tail call ptr @proto_tree_add_item(ptr noundef %1, i32 noundef %32, ptr noundef %0, i32 noundef 9, i32 noundef 16, i32 noundef 0)
  %34 = load ptr, ptr %23, align 8
  %35 = tail call ptr @tvb_address_to_str(ptr noundef %34, ptr noundef %0, i32 noundef 3, i32 noundef 9)
  tail call void (ptr, ptr, ...) @wmem_strbuf_append_printf(ptr noundef %3, ptr noundef nonnull @.str.1813, ptr noundef %35)
  %36 = load ptr, ptr %23, align 8
  %37 = tail call ptr @decode_bgp_rd(ptr noundef %36, ptr noundef %0, i32 noundef 25)
  %38 = load i32, ptr @hf_bgp_update_path_attribute_mp_reach_nlri_next_hop_rd, align 4
  %39 = tail call ptr @proto_tree_add_string(ptr noundef %1, i32 noundef %38, ptr noundef %0, i32 noundef 25, i32 noundef 8, ptr noundef %37)
  %40 = tail call i32 @tvb_memeql(ptr noundef %0, i32 noundef 25, ptr noundef nonnull @rd_zero, i64 noundef 8)
  %.not67 = icmp eq i32 %40, 0
  br i1 %.not67, label %43, label %41

41:                                               ; preds = %31
  %42 = tail call ptr @expert_add_info(ptr noundef %2, ptr noundef %39, ptr noundef nonnull @ei_bgp_next_hop_rd_nonzero)
  br label %43

43:                                               ; preds = %41, %31
  tail call void (ptr, ptr, ...) @wmem_strbuf_append_printf(ptr noundef %3, ptr noundef nonnull @.str.1811, ptr noundef %37)
  %44 = load i32, ptr @hf_bgp_update_path_attribute_mp_reach_nlri_next_hop_ipv6_link_local, align 4
  %45 = tail call ptr @proto_tree_add_item(ptr noundef %1, i32 noundef %44, ptr noundef %0, i32 noundef 33, i32 noundef 16, i32 noundef 0)
  call void @tvb_get_ipv6(ptr noundef %0, i32 noundef 33, ptr noundef nonnull %6)
  %.val = load i8, ptr %6, align 1
  %46 = getelementptr inbounds nuw i8, ptr %6, i64 1
  %.val69 = load i8, ptr %46, align 1
  %47 = icmp eq i8 %.val, -2
  %48 = icmp slt i8 %.val69, -64
  %spec.select.i = select i1 %47, i1 %48, i1 false
  br i1 %spec.select.i, label %51, label %49

49:                                               ; preds = %43
  %50 = call ptr (ptr, ptr, ptr, ptr, ...) @expert_add_info_format(ptr noundef %2, ptr noundef %45, ptr noundef nonnull @ei_bgp_next_hop_ipv6_scope, ptr noundef nonnull @.str.1809)
  br label %51

51:                                               ; preds = %49, %43
  call void @ip6_to_str_buf(ptr noundef nonnull %6, ptr noundef nonnull %7, i64 noundef 46)
  call void (ptr, ptr, ...) @wmem_strbuf_append_printf(ptr noundef %3, ptr noundef nonnull @.str.1810, ptr noundef nonnull %7)
  br label %52

52:                                               ; preds = %17, %51, %5
  %.0 = phi i32 [ 0, %5 ], [ %4, %51 ], [ %4, %17 ]
  call void @llvm.lifetime.end.p0(i64 46, ptr nonnull %7) #5
  call void @llvm.lifetime.end.p0(i64 16, ptr nonnull %6) #5
  ret i32 %.0
}